target datalayout = "e-m:e-p270:32:32-p271:32:32-p272:64:64-i64:64-i128:128-f80:128-n8:16:32:64-S128"
target triple = "x86_64-pc-linux-gnu"

%struct.Mio_GateStruct_t_ = type { ptr, double, ptr, ptr, ptr, ptr, ptr, ptr, i32, i32, i32, i32, double, ptr, ptr, %union.anon, i32 }
%union.anon = type { i64 }
%struct.Mio_PinStruct_t_ = type { ptr, i32, double, double, double, double, double, double, double, ptr }

; Function Attrs: nounwind uwtable
define ptr @Mio_PinReadNext(ptr noundef %0) #0 {
  %2 = alloca ptr, align 8
  store ptr %0, ptr %2, align 8, !tbaa !68
  %3 = load ptr, ptr %2, align 8, !tbaa !68
  %4 = getelementptr inbounds nuw %struct.Mio_PinStruct_t_, ptr %3, i32 0, i32 9
  %5 = load ptr, ptr %4, align 8, !tbaa !75
  ret ptr %5
}

; Function Attrs: nounwind uwtable
define ptr @Mio_GateReadPins(ptr noundef %0) #0 {
  %2 = alloca ptr, align 8
  store ptr %0, ptr %2, align 8, !tbaa !28
  %3 = load ptr, ptr %2, align 8, !tbaa !28
  %4 = getelementptr inbounds nuw %struct.Mio_GateStruct_t_, ptr %3, i32 0, i32 3
  %5 = load ptr, ptr %4, align 8, !tbaa !37
  ret ptr %5
}

; Function Attrs: nounwind uwtable
define float @Mio_GateReadPinDelay(ptr noundef %0, i32 noundef %1) #0 {
  %3 = alloca float, align 4
  %4 = alloca ptr, align 8
  %5 = alloca i32, align 4
  %6 = alloca ptr, align 8
  %7 = alloca i32, align 4
  %8 = alloca i32, align 4
  store ptr %0, ptr %4, align 8, !tbaa !28
  store i32 %1, ptr %5, align 4, !tbaa !26
  call void @llvm.lifetime.start.p0(i64 8, ptr %6) #6
  call void @llvm.lifetime.start.p0(i64 4, ptr %7) #6
  store i32 0, ptr %7, align 4, !tbaa !26
  %9 = load ptr, ptr %4, align 8, !tbaa !28
  %10 = call ptr @Mio_GateReadPins(ptr noundef %9)
  store ptr %10, ptr %6, align 8, !tbaa !68
  br label %11

11:                                               ; preds = %30, %2
  %12 = load ptr, ptr %6, align 8, !tbaa !68
  %13 = icmp ne ptr %12, null
  br i1 %13, label %14, label %33

14:                                               ; preds = %11
  %15 = load i32, ptr %7, align 4, !tbaa !26
  %16 = add nsw i32 %15, 1
  store i32 %16, ptr %7, align 4, !tbaa !26
  %17 = load i32, ptr %5, align 4, !tbaa !26
  %18 = icmp eq i32 %15, %17
  br i1 %18, label %19, label %29

19:                                               ; preds = %14
  %20 = load ptr, ptr %6, align 8, !tbaa !68
  %21 = getelementptr inbounds nuw %struct.Mio_PinStruct_t_, ptr %20, i32 0, i32 4
  %22 = load double, ptr %21, align 8, !tbaa !41
  %23 = load ptr, ptr %6, align 8, !tbaa !68
  %24 = getelementptr inbounds nuw %struct.Mio_PinStruct_t_, ptr %23, i32 0, i32 6
  %25 = load double, ptr %24, align 8, !tbaa !43
  %26 = fmul double 5.000000e-01, %25
  %27 = call double @llvm.fmuladd.f64(double 5.000000e-01, double %22, double %26)
  %28 = fptrunc double %27 to float
  store float %28, ptr %3, align 4
  store i32 1, ptr %8, align 4
  br label %34

29:                                               ; preds = %14
  br label %30

30:                                               ; preds = %29
  %31 = load ptr, ptr %6, align 8, !tbaa !68
  %32 = call ptr @Mio_PinReadNext(ptr noundef %31)
  store ptr %32, ptr %6, align 8, !tbaa !68
  br label %11, !llvm.loop !77

33:                                               ; preds = %11
  store float 1.000000e+09, ptr %3, align 4
  store i32 1, ptr %8, align 4
  br label %34

34:                                               ; preds = %33, %19
  call void @llvm.lifetime.end.p0(i64 4, ptr %7) #6
  call void @llvm.lifetime.end.p0(i64 8, ptr %6) #6
  %35 = load float, ptr %3, align 4
  ret float %35
}