; Function Attrs: nofree norecurse nosync nounwind memory(read, inaccessiblemem: none) uwtable
define float @Mio_GateReadPinDelay(ptr noundef readonly captures(none) %0, i32 noundef %1) local_unnamed_addr #9 {
  %3 = getelementptr inbounds nuw i8, ptr %0, i64 24
  %.0710 = load ptr, ptr %3, align 8, !tbaa !70
  %.not11 = icmp eq ptr %.0710, null
  br i1 %.not11, label %.loopexit, label %.lr.ph

.lr.ph:                                           ; preds = %2, %13
  %.0713 = phi ptr [ %.07, %13 ], [ %.0710, %2 ]
  %.012 = phi i32 [ %14, %13 ], [ 0, %2 ]
  %4 = icmp eq i32 %.012, %1
  br i1 %4, label %5, label %13

5:                                                ; preds = %.lr.ph
  %6 = getelementptr inbounds nuw i8, ptr %.0713, i64 32
  %7 = load double, ptr %6, align 8, !tbaa !39
  %8 = getelementptr inbounds nuw i8, ptr %.0713, i64 48
  %9 = load double, ptr %8, align 8, !tbaa !41
  %10 = fmul double %9, 5.000000e-01
  %11 = tail call double @llvm.fmuladd.f64(double %7, double 5.000000e-01, double %10)
  %12 = fptrunc double %11 to float
  br label %.loopexit

13:                                               ; preds = %.lr.ph
  %14 = add nuw nsw i32 %.012, 1
  %15 = getelementptr inbounds nuw i8, ptr %.0713, i64 72
  %.07 = load ptr, ptr %15, align 8, !tbaa !70
  %.not = icmp eq ptr %.07, null
  br i1 %.not, label %.loopexit, label %.lr.ph, !llvm.loop !72

.loopexit:                                        ; preds = %13, %2, %5
  %.08 = phi float [ %12, %5 ], [ 1.000000e+09, %2 ], [ 1.000000e+09, %13 ]
  ret float %.08
}